target datalayout = "e-m:e-p270:32:32-p271:32:32-p272:64:64-i64:64-i128:128-f80:128-n8:16:32:64-S128"
target triple = "x86_64-pc-linux-gnu"

%struct.node_set = type { i16, ptr, ptr, i32, ptr, i32, i32, i64, i64 }

@.str.81 = private unnamed_addr constant [16 x i8] c"NodeSet for %pJ\00", align 1
@.str.82 = private unnamed_addr constant [75 x i8] c"NodeSet[%d] Nodes:%s NodeWeight:%u Flags:%u FeatureBits:%s SchedWeight:%lu\00", align 1

; Function Attrs: nounwind uwtable
define internal void @_log_node_set(ptr noundef %0, ptr noundef %1, i32 noundef %2) #0 {
  %4 = alloca ptr, align 8
  %5 = alloca ptr, align 8
  %6 = alloca i32, align 4
  %7 = alloca ptr, align 8
  %8 = alloca [64 x i8], align 16
  %9 = alloca i32, align 4
  %10 = alloca i32, align 4
  store ptr %0, ptr %4, align 8
  store ptr %1, ptr %5, align 8
  store i32 %2, ptr %6, align 4
  call void @llvm.lifetime.start.p0(i64 8, ptr %7) #8
  call void @llvm.lifetime.start.p0(i64 64, ptr %8) #8
  call void @llvm.lifetime.start.p0(i64 4, ptr %9) #8
  %11 = call i32 @get_log_level()
  %12 = icmp slt i32 %11, 6
  br i1 %12, label %13, label %14

13:                                               ; preds = %3
  store i32 1, ptr %10, align 4
  br label %92

14:                                               ; preds = %3
  br label %15

15:                                               ; preds = %14
  br label %16

16:                                               ; preds = %15
  %17 = call i32 @get_log_level()
  %18 = icmp sge i32 %17, 6
  br i1 %18, label %19, label %21

19:                                               ; preds = %16
  %20 = load ptr, ptr %4, align 8
  call void (i32, ptr, ...) @log_var(i32 noundef 6, ptr noundef @.str.81, ptr noundef %20)
  br label %21

21:                                               ; preds = %19, %16
  br label %22

22:                                               ; preds = %21
  br label %23

23:                                               ; preds = %22
  br label %24

24:                                               ; preds = %23
  br label %25

25:                                               ; preds = %24
  store i32 0, ptr %9, align 4
  br label %26

26:                                               ; preds = %88, %25
  %27 = load i32, ptr %9, align 4
  %28 = load i32, ptr %6, align 4
  %29 = icmp slt i32 %27, %28
  br i1 %29, label %30, label %91

30:                                               ; preds = %26
  %31 = load ptr, ptr %5, align 8
  %32 = load i32, ptr %9, align 4
  %33 = sext i32 %32 to i64
  %34 = getelementptr inbounds %struct.node_set, ptr %31, i64 %33
  %35 = getelementptr inbounds nuw %struct.node_set, ptr %34, i32 0, i32 4
  %36 = load ptr, ptr %35, align 8
  %37 = call ptr @bitmap2node_name(ptr noundef %36)
  store ptr %37, ptr %7, align 8
  %38 = load ptr, ptr %5, align 8
  %39 = load i32, ptr %9, align 4
  %40 = sext i32 %39 to i64
  %41 = getelementptr inbounds %struct.node_set, ptr %38, i64 %40
  %42 = getelementptr inbounds nuw %struct.node_set, ptr %41, i32 0, i32 2
  %43 = load ptr, ptr %42, align 8
  %44 = icmp ne ptr %43, null
  br i1 %44, label %45, label %54

45:                                               ; preds = %30
  %46 = getelementptr inbounds [64 x i8], ptr %8, i64 0, i64 0
  %47 = load ptr, ptr %5, align 8
  %48 = load i32, ptr %9, align 4
  %49 = sext i32 %48 to i64
  %50 = getelementptr inbounds %struct.node_set, ptr %47, i64 %49
  %51 = getelementptr inbounds nuw %struct.node_set, ptr %50, i32 0, i32 2
  %52 = load ptr, ptr %51, align 8
  %53 = call ptr @bit_fmt(ptr noundef %46, i32 noundef 64, ptr noundef %52)
  br label %56

54:                                               ; preds = %30
  %55 = getelementptr inbounds [64 x i8], ptr %8, i64 0, i64 0
  store i8 0, ptr %55, align 16
  br label %56

56:                                               ; preds = %54, %45
  br label %57

57:                                               ; preds = %56
  br label %58

58:                                               ; preds = %57
  %59 = call i32 @get_log_level()
  %60 = icmp sge i32 %59, 6
  br i1 %60, label %61, label %83

61:                                               ; preds = %58
  %62 = load i32, ptr %9, align 4
  %63 = load ptr, ptr %7, align 8
  %64 = load ptr, ptr %5, align 8
  %65 = load i32, ptr %9, align 4
  %66 = sext i32 %65 to i64
  %67 = getelementptr inbounds %struct.node_set, ptr %64, i64 %66
  %68 = getelementptr inbounds nuw %struct.node_set, ptr %67, i32 0, i32 6
  %69 = load i32, ptr %68, align 4
  %70 = load ptr, ptr %5, align 8
  %71 = load i32, ptr %9, align 4
  %72 = sext i32 %71 to i64
  %73 = getelementptr inbounds %struct.node_set, ptr %70, i64 %72
  %74 = getelementptr inbounds nuw %struct.node_set, ptr %73, i32 0, i32 3
  %75 = load i32, ptr %74, align 8
  %76 = getelementptr inbounds [64 x i8], ptr %8, i64 0, i64 0
  %77 = load ptr, ptr %5, align 8
  %78 = load i32, ptr %9, align 4
  %79 = sext i32 %78 to i64
  %80 = getelementptr inbounds %struct.node_set, ptr %77, i64 %79
  %81 = getelementptr inbounds nuw %struct.node_set, ptr %80, i32 0, i32 8
  %82 = load i64, ptr %81, align 8
  call void (i32, ptr, ...) @log_var(i32 noundef 6, ptr noundef @.str.82, i32 noundef %62, ptr noundef %63, i32 noundef %69, i32 noundef %75, ptr noundef %76, i64 noundef %82)
  br label %83

83:                                               ; preds = %61, %58
  br label %84

84:                                               ; preds = %83
  br label %85

85:                                               ; preds = %84
  br label %86

86:                                               ; preds = %85
  br label %87

87:                                               ; preds = %86
  call void @slurm_xfree(ptr noundef %7)
  br label %88

88:                                               ; preds = %87
  %89 = load i32, ptr %9, align 4
  %90 = add nsw i32 %89, 1
  store i32 %90, ptr %9, align 4
  br label %26, !llvm.loop !30

91:                                               ; preds = %26
  store i32 0, ptr %10, align 4
  br label %92

92:                                               ; preds = %91, %13
  call void @llvm.lifetime.end.p0(i64 4, ptr %9) #8
  call void @llvm.lifetime.end.p0(i64 64, ptr %8) #8
  call void @llvm.lifetime.end.p0(i64 8, ptr %7) #8
  %93 = load i32, ptr %10, align 4
  switch i32 %93, label %95 [
    i32 0, label %94
    i32 1, label %94
  ]

94:                                               ; preds = %92, %92
  ret void

95:                                               ; preds = %92
  unreachable
}