; Function Attrs: nounwind uwtable
define internal fastcc void @_log_node_set(ptr noundef %0, ptr noundef readonly captures(none) %1, i32 noundef %2) unnamed_addr #0 {
  %4 = alloca ptr, align 8
  %5 = alloca [64 x i8], align 16
  call void @llvm.lifetime.start.p0(i64 8, ptr nonnull %4) #14
  call void @llvm.lifetime.start.p0(i64 64, ptr nonnull %5) #14
  %6 = tail call i32 @get_log_level() #14
  %7 = icmp slt i32 %6, 6
  br i1 %7, label %.loopexit, label %8

8:                                                ; preds = %3
  %9 = tail call i32 @get_log_level() #14
  %10 = icmp sgt i32 %9, 5
  br i1 %10, label %11, label %12

11:                                               ; preds = %8
  tail call void (i32, ptr, ...) @log_var(i32 noundef 6, ptr noundef nonnull @.str.81, ptr noundef %0) #14
  br label %12

12:                                               ; preds = %11, %8
  %13 = icmp sgt i32 %2, 0
  br i1 %13, label %.lr.ph.preheader, label %.loopexit

.lr.ph.preheader:                                 ; preds = %12
  %wide.trip.count = zext nneg i32 %2 to i64
  br label %.lr.ph

.lr.ph:                                           ; preds = %.lr.ph.preheader, %35
  %indvars.iv = phi i64 [ 0, %.lr.ph.preheader ], [ %indvars.iv.next, %35 ]
  %14 = getelementptr inbounds nuw %struct.node_set, ptr %1, i64 %indvars.iv
  %15 = getelementptr inbounds nuw i8, ptr %14, i64 32
  %16 = load ptr, ptr %15, align 8
  %17 = call ptr @bitmap2node_name(ptr noundef %16) #14
  store ptr %17, ptr %4, align 8
  %18 = getelementptr inbounds nuw i8, ptr %14, i64 16
  %19 = load ptr, ptr %18, align 8
  %.not = icmp eq ptr %19, null
  br i1 %.not, label %22, label %20

20:                                               ; preds = %.lr.ph
  %21 = call ptr @bit_fmt(ptr noundef nonnull %5, i32 noundef 64, ptr noundef nonnull %19) #14
  br label %23

22:                                               ; preds = %.lr.ph
  store i8 0, ptr %5, align 16
  br label %23

23:                                               ; preds = %22, %20
  %24 = call i32 @get_log_level() #14
  %25 = icmp sgt i32 %24, 5
  br i1 %25, label %26, label %35

26:                                               ; preds = %23
  %27 = load ptr, ptr %4, align 8
  %28 = getelementptr inbounds nuw i8, ptr %14, i64 44
  %29 = load i32, ptr %28, align 4
  %30 = getelementptr inbounds nuw i8, ptr %14, i64 24
  %31 = load i32, ptr %30, align 8
  %32 = getelementptr inbounds nuw i8, ptr %14, i64 56
  %33 = load i64, ptr %32, align 8
  %34 = trunc nuw nsw i64 %indvars.iv to i32
  call void (i32, ptr, ...) @log_var(i32 noundef 6, ptr noundef nonnull @.str.82, i32 noundef %34, ptr noundef %27, i32 noundef %29, i32 noundef %31, ptr noundef nonnull %5, i64 noundef %33) #14
  br label %35

35:                                               ; preds = %26, %23
  call void @slurm_xfree(ptr noundef nonnull %4) #14
  %indvars.iv.next = add nuw nsw i64 %indvars.iv, 1
  %exitcond.not = icmp eq i64 %indvars.iv.next, %wide.trip.count
  br i1 %exitcond.not, label %.loopexit, label %.lr.ph, !llvm.loop !34

.loopexit:                                        ; preds = %35, %12, %3
  call void @llvm.lifetime.end.p0(i64 64, ptr nonnull %5) #14
  call void @llvm.lifetime.end.p0(i64 8, ptr nonnull %4) #14
  ret void
}